target datalayout = "e-m:e-p270:32:32-p271:32:32-p272:64:64-i64:64-i128:128-f80:128-n8:16:32:64-S128"
target triple = "x86_64-pc-linux-gnu"

%struct.Node = type { i32 }
%struct.IndexStmt = type { i32, ptr, ptr, ptr, ptr, ptr, ptr, ptr, ptr, ptr, ptr, i32, i32, i32, i32, i8, i8, i8, i8, i8, i8, i8, i8, i8, i8, i8 }

@.str.326 = private unnamed_addr constant [1 x i8] zeroinitializer, align 1

; Function Attrs: nounwind uwtable
define internal ptr @nullable_string(ptr noundef %0, i32 noundef %1) #0 {
  %3 = alloca ptr, align 8
  %4 = alloca ptr, align 8
  %5 = alloca i32, align 4
  store ptr %0, ptr %4, align 8
  store i32 %1, ptr %5, align 4
  %6 = load i32, ptr %5, align 4
  %7 = icmp eq i32 %6, 0
  br i1 %7, label %8, label %9

8:                                                ; preds = %2
  store ptr null, ptr %3, align 8
  br label %30

9:                                                ; preds = %2
  %10 = load i32, ptr %5, align 4
  %11 = icmp eq i32 %10, 2
  br i1 %11, label %12, label %26

12:                                               ; preds = %9
  %13 = load ptr, ptr %4, align 8
  %14 = getelementptr inbounds i8, ptr %13, i64 0
  %15 = load i8, ptr %14, align 1
  %16 = sext i8 %15 to i32
  %17 = icmp eq i32 %16, 34
  br i1 %17, label %18, label %26

18:                                               ; preds = %12
  %19 = load ptr, ptr %4, align 8
  %20 = getelementptr inbounds i8, ptr %19, i64 1
  %21 = load i8, ptr %20, align 1
  %22 = sext i8 %21 to i32
  %23 = icmp eq i32 %22, 34
  br i1 %23, label %24, label %26

24:                                               ; preds = %18
  %25 = call ptr @pstrdup(ptr noundef @.str.326)
  store ptr %25, ptr %3, align 8
  br label %30

26:                                               ; preds = %18, %12, %9
  %27 = load ptr, ptr %4, align 8
  %28 = load i32, ptr %5, align 4
  %29 = call ptr @debackslash(ptr noundef %27, i32 noundef %28)
  store ptr %29, ptr %3, align 8
  br label %30

30:                                               ; preds = %26, %24, %8
  %31 = load ptr, ptr %3, align 8
  ret ptr %31
}

; Function Attrs: inlinehint nounwind uwtable
define internal ptr @newNode(i64 noundef %0, i32 noundef %1) #7 {
  %3 = alloca i64, align 8
  %4 = alloca i32, align 4
  %5 = alloca ptr, align 8
  store i64 %0, ptr %3, align 8
  store i32 %1, ptr %4, align 4
  call void @llvm.lifetime.start.p0(i64 8, ptr %5) #9
  %6 = load i64, ptr %3, align 8
  %7 = call ptr @palloc0(i64 noundef %6)
  store ptr %7, ptr %5, align 8
  %8 = load i32, ptr %4, align 4
  %9 = load ptr, ptr %5, align 8
  %10 = getelementptr inbounds nuw %struct.Node, ptr %9, i32 0, i32 0
  store i32 %8, ptr %10, align 4
  %11 = load ptr, ptr %5, align 8
  call void @llvm.lifetime.end.p0(i64 8, ptr %5) #9
  ret ptr %11
}

; Function Attrs: nounwind uwtable
define internal ptr @_readIndexStmt() #0 {
  %1 = alloca ptr, align 8
  %2 = alloca ptr, align 8
  %3 = alloca i32, align 4
  call void @llvm.lifetime.start.p0(i64 8, ptr %1) #9
  %4 = call ptr @newNode(i64 noundef 120, i32 noundef 203)
  store ptr %4, ptr %1, align 8
  call void @llvm.lifetime.start.p0(i64 8, ptr %2) #9
  call void @llvm.lifetime.start.p0(i64 4, ptr %3) #9
  %5 = call ptr @pg_strtok(ptr noundef %3)
  store ptr %5, ptr %2, align 8
  %6 = call ptr @pg_strtok(ptr noundef %3)
  store ptr %6, ptr %2, align 8
  %7 = load ptr, ptr %2, align 8
  %8 = load i32, ptr %3, align 4
  %9 = call ptr @nullable_string(ptr noundef %7, i32 noundef %8)
  %10 = load ptr, ptr %1, align 8
  %11 = getelementptr inbounds nuw %struct.IndexStmt, ptr %10, i32 0, i32 1
  store ptr %9, ptr %11, align 8
  %12 = call ptr @pg_strtok(ptr noundef %3)
  store ptr %12, ptr %2, align 8
  %13 = call ptr @nodeRead(ptr noundef null, i32 noundef 0)
  %14 = load ptr, ptr %1, align 8
  %15 = getelementptr inbounds nuw %struct.IndexStmt, ptr %14, i32 0, i32 2
  store ptr %13, ptr %15, align 8
  %16 = call ptr @pg_strtok(ptr noundef %3)
  store ptr %16, ptr %2, align 8
  %17 = call ptr @pg_strtok(ptr noundef %3)
  store ptr %17, ptr %2, align 8
  %18 = load ptr, ptr %2, align 8
  %19 = load i32, ptr %3, align 4
  %20 = call ptr @nullable_string(ptr noundef %18, i32 noundef %19)
  %21 = load ptr, ptr %1, align 8
  %22 = getelementptr inbounds nuw %struct.IndexStmt, ptr %21, i32 0, i32 3
  store ptr %20, ptr %22, align 8
  %23 = call ptr @pg_strtok(ptr noundef %3)
  store ptr %23, ptr %2, align 8
  %24 = call ptr @pg_strtok(ptr noundef %3)
  store ptr %24, ptr %2, align 8
  %25 = load ptr, ptr %2, align 8
  %26 = load i32, ptr %3, align 4
  %27 = call ptr @nullable_string(ptr noundef %25, i32 noundef %26)
  %28 = load ptr, ptr %1, align 8
  %29 = getelementptr inbounds nuw %struct.IndexStmt, ptr %28, i32 0, i32 4
  store ptr %27, ptr %29, align 8
  %30 = call ptr @pg_strtok(ptr noundef %3)
  store ptr %30, ptr %2, align 8
  %31 = call ptr @nodeRead(ptr noundef null, i32 noundef 0)
  %32 = load ptr, ptr %1, align 8
  %33 = getelementptr inbounds nuw %struct.IndexStmt, ptr %32, i32 0, i32 5
  store ptr %31, ptr %33, align 8
  %34 = call ptr @pg_strtok(ptr noundef %3)
  store ptr %34, ptr %2, align 8
  %35 = call ptr @nodeRead(ptr noundef null, i32 noundef 0)
  %36 = load ptr, ptr %1, align 8
  %37 = getelementptr inbounds nuw %struct.IndexStmt, ptr %36, i32 0, i32 6
  store ptr %35, ptr %37, align 8
  %38 = call ptr @pg_strtok(ptr noundef %3)
  store ptr %38, ptr %2, align 8
  %39 = call ptr @nodeRead(ptr noundef null, i32 noundef 0)
  %40 = load ptr, ptr %1, align 8
  %41 = getelementptr inbounds nuw %struct.IndexStmt, ptr %40, i32 0, i32 7
  store ptr %39, ptr %41, align 8
  %42 = call ptr @pg_strtok(ptr noundef %3)
  store ptr %42, ptr %2, align 8
  %43 = call ptr @nodeRead(ptr noundef null, i32 noundef 0)
  %44 = load ptr, ptr %1, align 8
  %45 = getelementptr inbounds nuw %struct.IndexStmt, ptr %44, i32 0, i32 8
  store ptr %43, ptr %45, align 8
  %46 = call ptr @pg_strtok(ptr noundef %3)
  store ptr %46, ptr %2, align 8
  %47 = call ptr @nodeRead(ptr noundef null, i32 noundef 0)
  %48 = load ptr, ptr %1, align 8
  %49 = getelementptr inbounds nuw %struct.IndexStmt, ptr %48, i32 0, i32 9
  store ptr %47, ptr %49, align 8
  %50 = call ptr @pg_strtok(ptr noundef %3)
  store ptr %50, ptr %2, align 8
  %51 = call ptr @pg_strtok(ptr noundef %3)
  store ptr %51, ptr %2, align 8
  %52 = load ptr, ptr %2, align 8
  %53 = load i32, ptr %3, align 4
  %54 = call ptr @nullable_string(ptr noundef %52, i32 noundef %53)
  %55 = load ptr, ptr %1, align 8
  %56 = getelementptr inbounds nuw %struct.IndexStmt, ptr %55, i32 0, i32 10
  store ptr %54, ptr %56, align 8
  %57 = call ptr @pg_strtok(ptr noundef %3)
  store ptr %57, ptr %2, align 8
  %58 = call ptr @pg_strtok(ptr noundef %3)
  store ptr %58, ptr %2, align 8
  %59 = load ptr, ptr %2, align 8
  %60 = call i64 @strtoul(ptr noundef %59, ptr noundef null, i32 noundef 10) #9
  %61 = trunc i64 %60 to i32
  %62 = load ptr, ptr %1, align 8
  %63 = getelementptr inbounds nuw %struct.IndexStmt, ptr %62, i32 0, i32 11
  store i32 %61, ptr %63, align 8
  %64 = call ptr @pg_strtok(ptr noundef %3)
  store ptr %64, ptr %2, align 8
  %65 = call ptr @pg_strtok(ptr noundef %3)
  store ptr %65, ptr %2, align 8
  %66 = load ptr, ptr %2, align 8
  %67 = call i64 @strtoul(ptr noundef %66, ptr noundef null, i32 noundef 10) #9
  %68 = trunc i64 %67 to i32
  %69 = load ptr, ptr %1, align 8
  %70 = getelementptr inbounds nuw %struct.IndexStmt, ptr %69, i32 0, i32 12
  store i32 %68, ptr %70, align 4
  %71 = call ptr @pg_strtok(ptr noundef %3)
  store ptr %71, ptr %2, align 8
  %72 = call ptr @pg_strtok(ptr noundef %3)
  store ptr %72, ptr %2, align 8
  %73 = load ptr, ptr %2, align 8
  %74 = call i64 @strtoul(ptr noundef %73, ptr noundef null, i32 noundef 10) #9
  %75 = trunc i64 %74 to i32
  %76 = load ptr, ptr %1, align 8
  %77 = getelementptr inbounds nuw %struct.IndexStmt, ptr %76, i32 0, i32 13
  store i32 %75, ptr %77, align 8
  %78 = call ptr @pg_strtok(ptr noundef %3)
  store ptr %78, ptr %2, align 8
  %79 = call ptr @pg_strtok(ptr noundef %3)
  store ptr %79, ptr %2, align 8
  %80 = load ptr, ptr %2, align 8
  %81 = call i64 @strtoul(ptr noundef %80, ptr noundef null, i32 noundef 10) #9
  %82 = trunc i64 %81 to i32
  %83 = load ptr, ptr %1, align 8
  %84 = getelementptr inbounds nuw %struct.IndexStmt, ptr %83, i32 0, i32 14
  store i32 %82, ptr %84, align 4
  %85 = call ptr @pg_strtok(ptr noundef %3)
  store ptr %85, ptr %2, align 8
  %86 = call ptr @pg_strtok(ptr noundef %3)
  store ptr %86, ptr %2, align 8
  %87 = load ptr, ptr %2, align 8
  %88 = load i8, ptr %87, align 1
  %89 = sext i8 %88 to i32
  %90 = icmp eq i32 %89, 116
  %91 = select i1 %90, i32 1, i32 0
  %92 = icmp ne i32 %91, 0
  %93 = load ptr, ptr %1, align 8
  %94 = getelementptr inbounds nuw %struct.IndexStmt, ptr %93, i32 0, i32 15
  %95 = zext i1 %92 to i8
  store i8 %95, ptr %94, align 8
  %96 = call ptr @pg_strtok(ptr noundef %3)
  store ptr %96, ptr %2, align 8
  %97 = call ptr @pg_strtok(ptr noundef %3)
  store ptr %97, ptr %2, align 8
  %98 = load ptr, ptr %2, align 8
  %99 = load i8, ptr %98, align 1
  %100 = sext i8 %99 to i32
  %101 = icmp eq i32 %100, 116
  %102 = select i1 %101, i32 1, i32 0
  %103 = icmp ne i32 %102, 0
  %104 = load ptr, ptr %1, align 8
  %105 = getelementptr inbounds nuw %struct.IndexStmt, ptr %104, i32 0, i32 16
  %106 = zext i1 %103 to i8
  store i8 %106, ptr %105, align 1
  %107 = call ptr @pg_strtok(ptr noundef %3)
  store ptr %107, ptr %2, align 8
  %108 = call ptr @pg_strtok(ptr noundef %3)
  store ptr %108, ptr %2, align 8
  %109 = load ptr, ptr %2, align 8
  %110 = load i8, ptr %109, align 1
  %111 = sext i8 %110 to i32
  %112 = icmp eq i32 %111, 116
  %113 = select i1 %112, i32 1, i32 0
  %114 = icmp ne i32 %113, 0
  %115 = load ptr, ptr %1, align 8
  %116 = getelementptr inbounds nuw %struct.IndexStmt, ptr %115, i32 0, i32 17
  %117 = zext i1 %114 to i8
  store i8 %117, ptr %116, align 2
  %118 = call ptr @pg_strtok(ptr noundef %3)
  store ptr %118, ptr %2, align 8
  %119 = call ptr @pg_strtok(ptr noundef %3)
  store ptr %119, ptr %2, align 8
  %120 = load ptr, ptr %2, align 8
  %121 = load i8, ptr %120, align 1
  %122 = sext i8 %121 to i32
  %123 = icmp eq i32 %122, 116
  %124 = select i1 %123, i32 1, i32 0
  %125 = icmp ne i32 %124, 0
  %126 = load ptr, ptr %1, align 8
  %127 = getelementptr inbounds nuw %struct.IndexStmt, ptr %126, i32 0, i32 18
  %128 = zext i1 %125 to i8
  store i8 %128, ptr %127, align 1
  %129 = call ptr @pg_strtok(ptr noundef %3)
  store ptr %129, ptr %2, align 8
  %130 = call ptr @pg_strtok(ptr noundef %3)
  store ptr %130, ptr %2, align 8
  %131 = load ptr, ptr %2, align 8
  %132 = load i8, ptr %131, align 1
  %133 = sext i8 %132 to i32
  %134 = icmp eq i32 %133, 116
  %135 = select i1 %134, i32 1, i32 0
  %136 = icmp ne i32 %135, 0
  %137 = load ptr, ptr %1, align 8
  %138 = getelementptr inbounds nuw %struct.IndexStmt, ptr %137, i32 0, i32 19
  %139 = zext i1 %136 to i8
  store i8 %139, ptr %138, align 4
  %140 = call ptr @pg_strtok(ptr noundef %3)
  store ptr %140, ptr %2, align 8
  %141 = call ptr @pg_strtok(ptr noundef %3)
  store ptr %141, ptr %2, align 8
  %142 = load ptr, ptr %2, align 8
  %143 = load i8, ptr %142, align 1
  %144 = sext i8 %143 to i32
  %145 = icmp eq i32 %144, 116
  %146 = select i1 %145, i32 1, i32 0
  %147 = icmp ne i32 %146, 0
  %148 = load ptr, ptr %1, align 8
  %149 = getelementptr inbounds nuw %struct.IndexStmt, ptr %148, i32 0, i32 20
  %150 = zext i1 %147 to i8
  store i8 %150, ptr %149, align 1
  %151 = call ptr @pg_strtok(ptr noundef %3)
  store ptr %151, ptr %2, align 8
  %152 = call ptr @pg_strtok(ptr noundef %3)
  store ptr %152, ptr %2, align 8
  %153 = load ptr, ptr %2, align 8
  %154 = load i8, ptr %153, align 1
  %155 = sext i8 %154 to i32
  %156 = icmp eq i32 %155, 116
  %157 = select i1 %156, i32 1, i32 0
  %158 = icmp ne i32 %157, 0
  %159 = load ptr, ptr %1, align 8
  %160 = getelementptr inbounds nuw %struct.IndexStmt, ptr %159, i32 0, i32 21
  %161 = zext i1 %158 to i8
  store i8 %161, ptr %160, align 2
  %162 = call ptr @pg_strtok(ptr noundef %3)
  store ptr %162, ptr %2, align 8
  %163 = call ptr @pg_strtok(ptr noundef %3)
  store ptr %163, ptr %2, align 8
  %164 = load ptr, ptr %2, align 8
  %165 = load i8, ptr %164, align 1
  %166 = sext i8 %165 to i32
  %167 = icmp eq i32 %166, 116
  %168 = select i1 %167, i32 1, i32 0
  %169 = icmp ne i32 %168, 0
  %170 = load ptr, ptr %1, align 8
  %171 = getelementptr inbounds nuw %struct.IndexStmt, ptr %170, i32 0, i32 22
  %172 = zext i1 %169 to i8
  store i8 %172, ptr %171, align 1
  %173 = call ptr @pg_strtok(ptr noundef %3)
  store ptr %173, ptr %2, align 8
  %174 = call ptr @pg_strtok(ptr noundef %3)
  store ptr %174, ptr %2, align 8
  %175 = load ptr, ptr %2, align 8
  %176 = load i8, ptr %175, align 1
  %177 = sext i8 %176 to i32
  %178 = icmp eq i32 %177, 116
  %179 = select i1 %178, i32 1, i32 0
  %180 = icmp ne i32 %179, 0
  %181 = load ptr, ptr %1, align 8
  %182 = getelementptr inbounds nuw %struct.IndexStmt, ptr %181, i32 0, i32 23
  %183 = zext i1 %180 to i8
  store i8 %183, ptr %182, align 8
  %184 = call ptr @pg_strtok(ptr noundef %3)
  store ptr %184, ptr %2, align 8
  %185 = call ptr @pg_strtok(ptr noundef %3)
  store ptr %185, ptr %2, align 8
  %186 = load ptr, ptr %2, align 8
  %187 = load i8, ptr %186, align 1
  %188 = sext i8 %187 to i32
  %189 = icmp eq i32 %188, 116
  %190 = select i1 %189, i32 1, i32 0
  %191 = icmp ne i32 %190, 0
  %192 = load ptr, ptr %1, align 8
  %193 = getelementptr inbounds nuw %struct.IndexStmt, ptr %192, i32 0, i32 24
  %194 = zext i1 %191 to i8
  store i8 %194, ptr %193, align 1
  %195 = call ptr @pg_strtok(ptr noundef %3)
  store ptr %195, ptr %2, align 8
  %196 = call ptr @pg_strtok(ptr noundef %3)
  store ptr %196, ptr %2, align 8
  %197 = load ptr, ptr %2, align 8
  %198 = load i8, ptr %197, align 1
  %199 = sext i8 %198 to i32
  %200 = icmp eq i32 %199, 116
  %201 = select i1 %200, i32 1, i32 0
  %202 = icmp ne i32 %201, 0
  %203 = load ptr, ptr %1, align 8
  %204 = getelementptr inbounds nuw %struct.IndexStmt, ptr %203, i32 0, i32 25
  %205 = zext i1 %202 to i8
  store i8 %205, ptr %204, align 2
  %206 = load ptr, ptr %1, align 8
  call void @llvm.lifetime.end.p0(i64 4, ptr %3) #9
  call void @llvm.lifetime.end.p0(i64 8, ptr %2) #9
  call void @llvm.lifetime.end.p0(i64 8, ptr %1) #9
  ret ptr %206
}