; Function Attrs: nounwind uwtable
define internal fastcc noundef ptr @_readIndexStmt() unnamed_addr #0 {
  %1 = alloca i32, align 4
  %2 = tail call noundef ptr @palloc0(i64 noundef 120) #10
  store i32 203, ptr %2, align 4
  call void @llvm.lifetime.start.p0(i64 4, ptr nonnull %1) #10
  %3 = call ptr @pg_strtok(ptr noundef nonnull %1) #10
  %4 = call ptr @pg_strtok(ptr noundef nonnull %1) #10
  %5 = load i32, ptr %1, align 4
  switch i32 %5, label %15 [
    i32 0, label %nullable_string.exit
    i32 2, label %6
  ]

6:                                                ; preds = %0
  %7 = load i8, ptr %4, align 1
  %8 = icmp eq i8 %7, 34
  br i1 %8, label %9, label %15

9:                                                ; preds = %6
  %10 = getelementptr inbounds nuw i8, ptr %4, i64 1
  %11 = load i8, ptr %10, align 1
  %12 = icmp eq i8 %11, 34
  br i1 %12, label %13, label %15

13:                                               ; preds = %9
  %14 = call ptr @pstrdup(ptr noundef nonnull @.str.326) #10
  br label %nullable_string.exit

15:                                               ; preds = %9, %6, %0
  %16 = call ptr @debackslash(ptr noundef %4, i32 noundef %5) #10
  br label %nullable_string.exit

nullable_string.exit:                             ; preds = %0, %13, %15
  %.0.i = phi ptr [ %14, %13 ], [ %16, %15 ], [ null, %0 ]
  %17 = getelementptr inbounds nuw i8, ptr %2, i64 8
  store ptr %.0.i, ptr %17, align 8
  %18 = call ptr @pg_strtok(ptr noundef nonnull %1) #10
  %19 = call ptr @nodeRead(ptr noundef null, i32 noundef 0) #10
  %20 = getelementptr inbounds nuw i8, ptr %2, i64 16
  store ptr %19, ptr %20, align 8
  %21 = call ptr @pg_strtok(ptr noundef nonnull %1) #10
  %22 = call ptr @pg_strtok(ptr noundef nonnull %1) #10
  %23 = load i32, ptr %1, align 4
  switch i32 %23, label %33 [
    i32 0, label %nullable_string.exit46
    i32 2, label %24
  ]

24:                                               ; preds = %nullable_string.exit
  %25 = load i8, ptr %22, align 1
  %26 = icmp eq i8 %25, 34
  br i1 %26, label %27, label %33

27:                                               ; preds = %24
  %28 = getelementptr inbounds nuw i8, ptr %22, i64 1
  %29 = load i8, ptr %28, align 1
  %30 = icmp eq i8 %29, 34
  br i1 %30, label %31, label %33

31:                                               ; preds = %27
  %32 = call ptr @pstrdup(ptr noundef nonnull @.str.326) #10
  br label %nullable_string.exit46

33:                                               ; preds = %27, %24, %nullable_string.exit
  %34 = call ptr @debackslash(ptr noundef %22, i32 noundef %23) #10
  br label %nullable_string.exit46

nullable_string.exit46:                           ; preds = %nullable_string.exit, %31, %33
  %.0.i45 = phi ptr [ %32, %31 ], [ %34, %33 ], [ null, %nullable_string.exit ]
  %35 = getelementptr inbounds nuw i8, ptr %2, i64 24
  store ptr %.0.i45, ptr %35, align 8
  %36 = call ptr @pg_strtok(ptr noundef nonnull %1) #10
  %37 = call ptr @pg_strtok(ptr noundef nonnull %1) #10
  %38 = load i32, ptr %1, align 4
  switch i32 %38, label %48 [
    i32 0, label %nullable_string.exit48
    i32 2, label %39
  ]

39:                                               ; preds = %nullable_string.exit46
  %40 = load i8, ptr %37, align 1
  %41 = icmp eq i8 %40, 34
  br i1 %41, label %42, label %48

42:                                               ; preds = %39
  %43 = getelementptr inbounds nuw i8, ptr %37, i64 1
  %44 = load i8, ptr %43, align 1
  %45 = icmp eq i8 %44, 34
  br i1 %45, label %46, label %48

46:                                               ; preds = %42
  %47 = call ptr @pstrdup(ptr noundef nonnull @.str.326) #10
  br label %nullable_string.exit48

48:                                               ; preds = %42, %39, %nullable_string.exit46
  %49 = call ptr @debackslash(ptr noundef %37, i32 noundef %38) #10
  br label %nullable_string.exit48

nullable_string.exit48:                           ; preds = %nullable_string.exit46, %46, %48
  %.0.i47 = phi ptr [ %47, %46 ], [ %49, %48 ], [ null, %nullable_string.exit46 ]
  %50 = getelementptr inbounds nuw i8, ptr %2, i64 32
  store ptr %.0.i47, ptr %50, align 8
  %51 = call ptr @pg_strtok(ptr noundef nonnull %1) #10
  %52 = call ptr @nodeRead(ptr noundef null, i32 noundef 0) #10
  %53 = getelementptr inbounds nuw i8, ptr %2, i64 40
  store ptr %52, ptr %53, align 8
  %54 = call ptr @pg_strtok(ptr noundef nonnull %1) #10
  %55 = call ptr @nodeRead(ptr noundef null, i32 noundef 0) #10
  %56 = getelementptr inbounds nuw i8, ptr %2, i64 48
  store ptr %55, ptr %56, align 8
  %57 = call ptr @pg_strtok(ptr noundef nonnull %1) #10
  %58 = call ptr @nodeRead(ptr noundef null, i32 noundef 0) #10
  %59 = getelementptr inbounds nuw i8, ptr %2, i64 56
  store ptr %58, ptr %59, align 8
  %60 = call ptr @pg_strtok(ptr noundef nonnull %1) #10
  %61 = call ptr @nodeRead(ptr noundef null, i32 noundef 0) #10
  %62 = getelementptr inbounds nuw i8, ptr %2, i64 64
  store ptr %61, ptr %62, align 8
  %63 = call ptr @pg_strtok(ptr noundef nonnull %1) #10
  %64 = call ptr @nodeRead(ptr noundef null, i32 noundef 0) #10
  %65 = getelementptr inbounds nuw i8, ptr %2, i64 72
  store ptr %64, ptr %65, align 8
  %66 = call ptr @pg_strtok(ptr noundef nonnull %1) #10
  %67 = call ptr @pg_strtok(ptr noundef nonnull %1) #10
  %68 = load i32, ptr %1, align 4
  switch i32 %68, label %78 [
    i32 0, label %nullable_string.exit50
    i32 2, label %69
  ]

69:                                               ; preds = %nullable_string.exit48
  %70 = load i8, ptr %67, align 1
  %71 = icmp eq i8 %70, 34
  br i1 %71, label %72, label %78

72:                                               ; preds = %69
  %73 = getelementptr inbounds nuw i8, ptr %67, i64 1
  %74 = load i8, ptr %73, align 1
  %75 = icmp eq i8 %74, 34
  br i1 %75, label %76, label %78

76:                                               ; preds = %72
  %77 = call ptr @pstrdup(ptr noundef nonnull @.str.326) #10
  br label %nullable_string.exit50

78:                                               ; preds = %72, %69, %nullable_string.exit48
  %79 = call ptr @debackslash(ptr noundef %67, i32 noundef %68) #10
  br label %nullable_string.exit50

nullable_string.exit50:                           ; preds = %nullable_string.exit48, %76, %78
  %.0.i49 = phi ptr [ %77, %76 ], [ %79, %78 ], [ null, %nullable_string.exit48 ]
  %80 = getelementptr inbounds nuw i8, ptr %2, i64 80
  store ptr %.0.i49, ptr %80, align 8
  %81 = call ptr @pg_strtok(ptr noundef nonnull %1) #10
  %82 = call ptr @pg_strtok(ptr noundef nonnull %1) #10
  %83 = call i64 @strtoul(ptr noundef captures(none) %82, ptr noundef null, i32 noundef 10) #10
  %84 = trunc i64 %83 to i32
  %85 = getelementptr inbounds nuw i8, ptr %2, i64 88
  store i32 %84, ptr %85, align 8
  %86 = call ptr @pg_strtok(ptr noundef nonnull %1) #10
  %87 = call ptr @pg_strtok(ptr noundef nonnull %1) #10
  %88 = call i64 @strtoul(ptr noundef captures(none) %87, ptr noundef null, i32 noundef 10) #10
  %89 = trunc i64 %88 to i32
  %90 = getelementptr inbounds nuw i8, ptr %2, i64 92
  store i32 %89, ptr %90, align 4
  %91 = call ptr @pg_strtok(ptr noundef nonnull %1) #10
  %92 = call ptr @pg_strtok(ptr noundef nonnull %1) #10
  %93 = call i64 @strtoul(ptr noundef captures(none) %92, ptr noundef null, i32 noundef 10) #10
  %94 = trunc i64 %93 to i32
  %95 = getelementptr inbounds nuw i8, ptr %2, i64 96
  store i32 %94, ptr %95, align 8
  %96 = call ptr @pg_strtok(ptr noundef nonnull %1) #10
  %97 = call ptr @pg_strtok(ptr noundef nonnull %1) #10
  %98 = call i64 @strtoul(ptr noundef captures(none) %97, ptr noundef null, i32 noundef 10) #10
  %99 = trunc i64 %98 to i32
  %100 = getelementptr inbounds nuw i8, ptr %2, i64 100
  store i32 %99, ptr %100, align 4
  %101 = call ptr @pg_strtok(ptr noundef nonnull %1) #10
  %102 = call ptr @pg_strtok(ptr noundef nonnull %1) #10
  %103 = load i8, ptr %102, align 1
  %104 = icmp eq i8 %103, 116
  %105 = getelementptr inbounds nuw i8, ptr %2, i64 104
  %106 = zext i1 %104 to i8
  store i8 %106, ptr %105, align 8
  %107 = call ptr @pg_strtok(ptr noundef nonnull %1) #10
  %108 = call ptr @pg_strtok(ptr noundef nonnull %1) #10
  %109 = load i8, ptr %108, align 1
  %110 = icmp eq i8 %109, 116
  %111 = getelementptr inbounds nuw i8, ptr %2, i64 105
  %112 = zext i1 %110 to i8
  store i8 %112, ptr %111, align 1
  %113 = call ptr @pg_strtok(ptr noundef nonnull %1) #10
  %114 = call ptr @pg_strtok(ptr noundef nonnull %1) #10
  %115 = load i8, ptr %114, align 1
  %116 = icmp eq i8 %115, 116
  %117 = getelementptr inbounds nuw i8, ptr %2, i64 106
  %118 = zext i1 %116 to i8
  store i8 %118, ptr %117, align 2
  %119 = call ptr @pg_strtok(ptr noundef nonnull %1) #10
  %120 = call ptr @pg_strtok(ptr noundef nonnull %1) #10
  %121 = load i8, ptr %120, align 1
  %122 = icmp eq i8 %121, 116
  %123 = getelementptr inbounds nuw i8, ptr %2, i64 107
  %124 = zext i1 %122 to i8
  store i8 %124, ptr %123, align 1
  %125 = call ptr @pg_strtok(ptr noundef nonnull %1) #10
  %126 = call ptr @pg_strtok(ptr noundef nonnull %1) #10
  %127 = load i8, ptr %126, align 1
  %128 = icmp eq i8 %127, 116
  %129 = getelementptr inbounds nuw i8, ptr %2, i64 108
  %130 = zext i1 %128 to i8
  store i8 %130, ptr %129, align 4
  %131 = call ptr @pg_strtok(ptr noundef nonnull %1) #10
  %132 = call ptr @pg_strtok(ptr noundef nonnull %1) #10
  %133 = load i8, ptr %132, align 1
  %134 = icmp eq i8 %133, 116
  %135 = getelementptr inbounds nuw i8, ptr %2, i64 109
  %136 = zext i1 %134 to i8
  store i8 %136, ptr %135, align 1
  %137 = call ptr @pg_strtok(ptr noundef nonnull %1) #10
  %138 = call ptr @pg_strtok(ptr noundef nonnull %1) #10
  %139 = load i8, ptr %138, align 1
  %140 = icmp eq i8 %139, 116
  %141 = getelementptr inbounds nuw i8, ptr %2, i64 110
  %142 = zext i1 %140 to i8
  store i8 %142, ptr %141, align 2
  %143 = call ptr @pg_strtok(ptr noundef nonnull %1) #10
  %144 = call ptr @pg_strtok(ptr noundef nonnull %1) #10
  %145 = load i8, ptr %144, align 1
  %146 = icmp eq i8 %145, 116
  %147 = getelementptr inbounds nuw i8, ptr %2, i64 111
  %148 = zext i1 %146 to i8
  store i8 %148, ptr %147, align 1
  %149 = call ptr @pg_strtok(ptr noundef nonnull %1) #10
  %150 = call ptr @pg_strtok(ptr noundef nonnull %1) #10
  %151 = load i8, ptr %150, align 1
  %152 = icmp eq i8 %151, 116
  %153 = getelementptr inbounds nuw i8, ptr %2, i64 112
  %154 = zext i1 %152 to i8
  store i8 %154, ptr %153, align 8
  %155 = call ptr @pg_strtok(ptr noundef nonnull %1) #10
  %156 = call ptr @pg_strtok(ptr noundef nonnull %1) #10
  %157 = load i8, ptr %156, align 1
  %158 = icmp eq i8 %157, 116
  %159 = getelementptr inbounds nuw i8, ptr %2, i64 113
  %160 = zext i1 %158 to i8
  store i8 %160, ptr %159, align 1
  %161 = call ptr @pg_strtok(ptr noundef nonnull %1) #10
  %162 = call ptr @pg_strtok(ptr noundef nonnull %1) #10
  %163 = load i8, ptr %162, align 1
  %164 = icmp eq i8 %163, 116
  %165 = getelementptr inbounds nuw i8, ptr %2, i64 114
  %166 = zext i1 %164 to i8
  store i8 %166, ptr %165, align 2
  call void @llvm.lifetime.end.p0(i64 4, ptr nonnull %1) #10
  ret ptr %2
}